target datalayout = "e-m:e-p270:32:32-p271:32:32-p272:64:64-i64:64-i128:128-f80:128-n8:16:32:64-S128"
target triple = "x86_64-unknown-linux-gnu"

%class.b2World = type <{ %class.b2BlockAllocator, %class.b2StackAllocator, %class.b2ContactManager, ptr, ptr, i32, i32, %struct.b2Vec2, i8, [7 x i8], ptr, ptr, float, i8, i8, i8, i8, i8, i8, i8, i8, %struct.b2Profile, [4 x i8] }>
%class.b2BlockAllocator = type { ptr, i32, i32, [14 x ptr] }
%class.b2StackAllocator = type <{ [102400 x i8], i32, i32, i32, [4 x i8], [32 x %struct.b2StackEntry], i32, [4 x i8] }>
%struct.b2StackEntry = type { ptr, i32, i8 }
%class.b2ContactManager = type { %class.b2BroadPhase, ptr, i32, ptr, ptr, ptr }
%class.b2BroadPhase = type <{ %class.b2DynamicTree, i32, [4 x i8], ptr, i32, i32, ptr, i32, i32, i32, [4 x i8] }>
%class.b2DynamicTree = type { i32, ptr, i32, i32, i32, i32 }
%struct.b2Vec2 = type { float, float }
%struct.b2Profile = type { float, float, float, float, float, float, float, float }
%class.b2Body = type { i32, i16, i32, %struct.b2Transform, %struct.b2Sweep, %struct.b2Vec2, float, %struct.b2Vec2, float, ptr, ptr, ptr, ptr, i32, ptr, ptr, float, float, float, float, float, float, float, float, %struct.b2BodyUserData }
%struct.b2Transform = type { %struct.b2Vec2, %struct.b2Rot }
%struct.b2Rot = type { float, float }
%struct.b2Sweep = type { %struct.b2Vec2, %struct.b2Vec2, %struct.b2Vec2, float, float, float }
%struct.b2BodyUserData = type { i64 }

; Function Attrs: mustprogress nounwind uwtable
define linkonce_odr hidden noundef zeroext i1 @_ZNK7b2World8IsLockedEv(ptr noundef nonnull align 8 dereferenceable(103284) %this) #5 comdat align 2 {
entry:
  %this.addr = alloca ptr, align 8
  store ptr %this, ptr %this.addr, align 8
  %this1 = load ptr, ptr %this.addr, align 8
  %m_locked = getelementptr inbounds %class.b2World, ptr %this1, i32 0, i32 14
  %0 = load i8, ptr %m_locked, align 1
  %tobool = trunc i8 %0 to i1
  ret i1 %tobool
}

; Function Attrs: mustprogress uwtable
define noundef ptr @_ZN7b2World10CreateBodyEPK9b2BodyDef(ptr noundef nonnull align 8 dereferenceable(103284) %this, ptr noundef %def) #0 align 2 {
entry:
  %retval = alloca ptr, align 8
  %this.addr = alloca ptr, align 8
  %def.addr = alloca ptr, align 8
  %mem = alloca ptr, align 8
  %b = alloca ptr, align 8
  store ptr %this, ptr %this.addr, align 8
  store ptr %def, ptr %def.addr, align 8
  %this1 = load ptr, ptr %this.addr, align 8
  %call = call noundef zeroext i1 @_ZNK7b2World8IsLockedEv(ptr noundef nonnull align 8 dereferenceable(103284) %this1)
  br i1 %call, label %if.then, label %if.end

if.then:                                          ; preds = %entry
  store ptr null, ptr %retval, align 8
  br label %return

if.end:                                           ; preds = %entry
  %m_blockAllocator = getelementptr inbounds %class.b2World, ptr %this1, i32 0, i32 0
  %call2 = call noundef ptr @_ZN16b2BlockAllocator8AllocateEi(ptr noundef nonnull align 8 dereferenceable(128) %m_blockAllocator, i32 noundef 184)
  store ptr %call2, ptr %mem, align 8
  %0 = load ptr, ptr %mem, align 8
  %1 = load ptr, ptr %def.addr, align 8
  call void @_ZN6b2BodyC1EPK9b2BodyDefP7b2World(ptr noundef nonnull align 8 dereferenceable(184) %0, ptr noundef %1, ptr noundef %this1)
  store ptr %0, ptr %b, align 8
  %2 = load ptr, ptr %b, align 8
  %m_prev = getelementptr inbounds %class.b2Body, ptr %2, i32 0, i32 10
  store ptr null, ptr %m_prev, align 8
  %m_bodyList = getelementptr inbounds %class.b2World, ptr %this1, i32 0, i32 3
  %3 = load ptr, ptr %m_bodyList, align 8
  %4 = load ptr, ptr %b, align 8
  %m_next = getelementptr inbounds %class.b2Body, ptr %4, i32 0, i32 11
  store ptr %3, ptr %m_next, align 8
  %m_bodyList3 = getelementptr inbounds %class.b2World, ptr %this1, i32 0, i32 3
  %5 = load ptr, ptr %m_bodyList3, align 8
  %tobool = icmp ne ptr %5, null
  br i1 %tobool, label %if.then4, label %if.end7

if.then4:                                         ; preds = %if.end
  %6 = load ptr, ptr %b, align 8
  %m_bodyList5 = getelementptr inbounds %class.b2World, ptr %this1, i32 0, i32 3
  %7 = load ptr, ptr %m_bodyList5, align 8
  %m_prev6 = getelementptr inbounds %class.b2Body, ptr %7, i32 0, i32 10
  store ptr %6, ptr %m_prev6, align 8
  br label %if.end7

if.end7:                                          ; preds = %if.then4, %if.end
  %8 = load ptr, ptr %b, align 8
  %m_bodyList8 = getelementptr inbounds %class.b2World, ptr %this1, i32 0, i32 3
  store ptr %8, ptr %m_bodyList8, align 8
  %m_bodyCount = getelementptr inbounds %class.b2World, ptr %this1, i32 0, i32 5
  %9 = load i32, ptr %m_bodyCount, align 8
  %inc = add nsw i32 %9, 1
  store i32 %inc, ptr %m_bodyCount, align 8
  %10 = load ptr, ptr %b, align 8
  store ptr %10, ptr %retval, align 8
  br label %return

return:                                           ; preds = %if.end7, %if.then
  %11 = load ptr, ptr %retval, align 8
  ret ptr %11
}