; Function Attrs: mustprogress uwtable
define noundef ptr @_ZN7b2World10CreateBodyEPK9b2BodyDef(ptr noundef nonnull align 8 dereferenceable(103284) %this, ptr noundef %def) local_unnamed_addr #0 align 2 {
entry:
  %m_locked.i = getelementptr inbounds nuw i8, ptr %this, i64 103245
  %0 = load i8, ptr %m_locked.i, align 1
  %tobool.i = trunc i8 %0 to i1
  br i1 %tobool.i, label %return, label %if.end

if.end:                                           ; preds = %entry
  %call2 = tail call noundef ptr @_ZN16b2BlockAllocator8AllocateEi(ptr noundef nonnull align 8 dereferenceable(128) %this, i32 noundef 184)
  tail call void @_ZN6b2BodyC1EPK9b2BodyDefP7b2World(ptr noundef nonnull align 8 dereferenceable(184) %call2, ptr noundef %def, ptr noundef nonnull %this)
  %m_prev = getelementptr inbounds nuw i8, ptr %call2, i64 96
  store ptr null, ptr %m_prev, align 8
  %m_bodyList = getelementptr inbounds nuw i8, ptr %this, i64 103184
  %1 = load ptr, ptr %m_bodyList, align 8
  %m_next = getelementptr inbounds nuw i8, ptr %call2, i64 104
  store ptr %1, ptr %m_next, align 8
  %tobool.not = icmp eq ptr %1, null
  br i1 %tobool.not, label %if.end7, label %if.then4

if.then4:                                         ; preds = %if.end
  %m_prev6 = getelementptr inbounds nuw i8, ptr %1, i64 96
  store ptr %call2, ptr %m_prev6, align 8
  br label %if.end7

if.end7:                                          ; preds = %if.then4, %if.end
  store ptr %call2, ptr %m_bodyList, align 8
  %m_bodyCount = getelementptr inbounds nuw i8, ptr %this, i64 103200
  %2 = load i32, ptr %m_bodyCount, align 8
  %inc = add nsw i32 %2, 1
  store i32 %inc, ptr %m_bodyCount, align 8
  br label %return

return:                                           ; preds = %entry, %if.end7
  %retval.0 = phi ptr [ %call2, %if.end7 ], [ null, %entry ]
  ret ptr %retval.0
}